target datalayout = "e-m:e-p270:32:32-p271:32:32-p272:64:64-i64:64-i128:128-f80:128-n8:16:32:64-S128"
target triple = "x86_64-pc-linux-gnu"

%struct.type_and_oid_list = type { i32, %struct.oid_array, i32 }
%struct.oid_array = type { ptr, i64, i64, i32 }
%struct.commit = type { %struct.object, i64, ptr, ptr, i32 }
%struct.object = type { i32, %struct.object_id }
%struct.object_id = type { [32 x i8], i32 }
%struct.tree = type { %struct.object, ptr, i64 }

@edge_repo = internal global ptr null, align 8
@edge_tree_list = internal global ptr null, align 8

; Function Attrs: nounwind uwtable
define internal void @show_edge(ptr noundef %0) #0 {
  %2 = alloca ptr, align 8
  %3 = alloca ptr, align 8
  %4 = alloca i32, align 4
  store ptr %0, ptr %2, align 8, !tbaa !95
  call void @llvm.lifetime.start.p0(i64 8, ptr %3) #9
  %5 = load ptr, ptr @edge_repo, align 8, !tbaa !92
  %6 = load ptr, ptr %2, align 8, !tbaa !95
  %7 = call ptr @repo_get_commit_tree(ptr noundef %5, ptr noundef %6)
  store ptr %7, ptr %3, align 8, !tbaa !101
  %8 = load ptr, ptr %3, align 8, !tbaa !101
  %9 = icmp ne ptr %8, null
  br i1 %9, label %11, label %10

10:                                               ; preds = %1
  store i32 1, ptr %4, align 4
  br label %53

11:                                               ; preds = %1
  %12 = load ptr, ptr %2, align 8, !tbaa !95
  %13 = getelementptr inbounds nuw %struct.commit, ptr %12, i32 0, i32 0
  %14 = load i32, ptr %13, align 8
  %15 = lshr i32 %14, 4
  %16 = and i32 %15, 2
  %17 = icmp ne i32 %16, 0
  br i1 %17, label %18, label %29

18:                                               ; preds = %11
  %19 = load ptr, ptr %3, align 8, !tbaa !101
  %20 = getelementptr inbounds nuw %struct.tree, ptr %19, i32 0, i32 0
  %21 = load i32, ptr %20, align 8
  %22 = lshr i32 %21, 4
  %23 = or i32 %22, 2
  %24 = load i32, ptr %20, align 8
  %25 = and i32 %23, 268435455
  %26 = shl i32 %25, 4
  %27 = and i32 %24, 15
  %28 = or i32 %27, %26
  store i32 %28, ptr %20, align 8
  br label %29

29:                                               ; preds = %18, %11
  %30 = load ptr, ptr %3, align 8, !tbaa !101
  %31 = getelementptr inbounds nuw %struct.tree, ptr %30, i32 0, i32 0
  %32 = load i32, ptr %31, align 8
  %33 = lshr i32 %32, 4
  %34 = and i32 %33, 1
  %35 = icmp ne i32 %34, 0
  br i1 %35, label %36, label %37

36:                                               ; preds = %29
  store i32 1, ptr %4, align 4
  br label %53

37:                                               ; preds = %29
  %38 = load ptr, ptr %3, align 8, !tbaa !101
  %39 = getelementptr inbounds nuw %struct.tree, ptr %38, i32 0, i32 0
  %40 = load i32, ptr %39, align 8
  %41 = lshr i32 %40, 4
  %42 = or i32 %41, 1
  %43 = load i32, ptr %39, align 8
  %44 = and i32 %42, 268435455
  %45 = shl i32 %44, 4
  %46 = and i32 %43, 15
  %47 = or i32 %46, %45
  store i32 %47, ptr %39, align 8
  %48 = load ptr, ptr @edge_tree_list, align 8, !tbaa !82
  %49 = getelementptr inbounds nuw %struct.type_and_oid_list, ptr %48, i32 0, i32 1
  %50 = load ptr, ptr %3, align 8, !tbaa !101
  %51 = getelementptr inbounds nuw %struct.tree, ptr %50, i32 0, i32 0
  %52 = getelementptr inbounds nuw %struct.object, ptr %51, i32 0, i32 1
  call void @oid_array_append(ptr noundef %49, ptr noundef %52)
  store i32 0, ptr %4, align 4
  br label %53

53:                                               ; preds = %37, %36, %10
  call void @llvm.lifetime.end.p0(i64 8, ptr %3) #9
  %54 = load i32, ptr %4, align 4
  switch i32 %54, label %56 [
    i32 0, label %55
    i32 1, label %55
  ]

55:                                               ; preds = %53, %53
  ret void

56:                                               ; preds = %53
  unreachable
}