; Function Attrs: nounwind uwtable
define internal void @show_edge(ptr noundef %0) #0 {
  %2 = load ptr, ptr @edge_repo, align 8, !tbaa !84
  %3 = tail call ptr @repo_get_commit_tree(ptr noundef %2, ptr noundef %0) #13
  %.not = icmp eq ptr %3, null
  br i1 %.not, label %17, label %4

4:                                                ; preds = %1
  %5 = load i32, ptr %0, align 8
  %6 = and i32 %5, 32
  %.not7 = icmp eq i32 %6, 0
  %.pre = load i32, ptr %3, align 8
  br i1 %.not7, label %9, label %7

7:                                                ; preds = %4
  %8 = or i32 %.pre, 32
  store i32 %8, ptr %3, align 8
  br label %9

9:                                                ; preds = %7, %4
  %10 = phi i32 [ %8, %7 ], [ %.pre, %4 ]
  %11 = and i32 %10, 16
  %.not8 = icmp eq i32 %11, 0
  br i1 %.not8, label %12, label %17

12:                                               ; preds = %9
  %13 = or disjoint i32 %10, 16
  store i32 %13, ptr %3, align 8
  %14 = load ptr, ptr @edge_tree_list, align 8, !tbaa !85
  %15 = getelementptr inbounds nuw i8, ptr %14, i64 8
  %16 = getelementptr inbounds nuw i8, ptr %3, i64 4
  tail call void @oid_array_append(ptr noundef nonnull %15, ptr noundef nonnull %16) #13
  br label %17

17:                                               ; preds = %9, %1, %12
  ret void
}